; Function Attrs: mustprogress nofree norecurse nosync nounwind willreturn memory(read, inaccessiblemem: none) uwtable
define internal noundef float @_ZNK5faiss12_GLOBAL__N_112IVFPQScannerILNS_10MetricTypeE1ENS_4CMaxIflEENS_10PQDecoder8ELb0EE16distance_to_codeEPKh(ptr noundef nonnull readonly align 8 captures(none) dereferenceable(264) %0, ptr noundef readonly captures(none) %1) unnamed_addr #22 align 2 {
  %3 = getelementptr inbounds nuw i8, ptr %0, i64 248
  %4 = load float, ptr %3, align 8, !tbaa !713
  %5 = getelementptr inbounds nuw i8, ptr %0, i64 64
  %6 = load ptr, ptr %5, align 8, !tbaa !179
  %7 = getelementptr inbounds nuw i8, ptr %6, i64 24
  %8 = load i64, ptr %7, align 8, !tbaa !161
  %9 = getelementptr inbounds nuw i8, ptr %6, i64 32
  %10 = load i64, ptr %9, align 8, !tbaa !180
  %11 = trunc i64 %10 to i32
  %12 = shl nuw i32 1, %11
  %13 = sext i32 %12 to i64
  %.not.i.i = icmp eq i64 %8, 0
  br i1 %.not.i.i, label %_ZN5faiss20distance_single_codeINS_10PQDecoder8EEEfmmPKfPKh.exit, label %.lr.ph.i.i.preheader

.lr.ph.i.i.preheader:                             ; preds = %2
  %14 = getelementptr inbounds nuw i8, ptr %0, i64 88
  %15 = load ptr, ptr %14, align 8, !tbaa !181
  br label %.lr.ph.i.i

.lr.ph.i.i:                                       ; preds = %.lr.ph.i.i.preheader, %.lr.ph.i.i
  %.016.i.i = phi i64 [ %23, %.lr.ph.i.i ], [ 0, %.lr.ph.i.i.preheader ]
  %.01115.i.i = phi float [ %21, %.lr.ph.i.i ], [ 0.000000e+00, %.lr.ph.i.i.preheader ]
  %.01214.i.i = phi ptr [ %22, %.lr.ph.i.i ], [ %15, %.lr.ph.i.i.preheader ]
  %.sroa.0.013.i.i = phi ptr [ %16, %.lr.ph.i.i ], [ %1, %.lr.ph.i.i.preheader ]
  %16 = getelementptr inbounds nuw i8, ptr %.sroa.0.013.i.i, i64 1
  %17 = load i8, ptr %.sroa.0.013.i.i, align 1, !tbaa !72
  %18 = zext i8 %17 to i64
  %19 = getelementptr inbounds nuw float, ptr %.01214.i.i, i64 %18
  %20 = load float, ptr %19, align 4, !tbaa !138
  %21 = fadd float %.01115.i.i, %20
  %22 = getelementptr inbounds nuw float, ptr %.01214.i.i, i64 %13
  %23 = add nuw i64 %.016.i.i, 1
  %exitcond.not.i.i = icmp eq i64 %23, %8
  br i1 %exitcond.not.i.i, label %_ZN5faiss20distance_single_codeINS_10PQDecoder8EEEfmmPKfPKh.exit, label %.lr.ph.i.i, !llvm.loop !182

_ZN5faiss20distance_single_codeINS_10PQDecoder8EEEfmmPKfPKh.exit: ; preds = %.lr.ph.i.i, %2
  %.011.lcssa.i.i = phi float [ 0.000000e+00, %2 ], [ %21, %.lr.ph.i.i ]
  %24 = fadd float %4, %.011.lcssa.i.i
  ret float %24
}